Certificate:
    Data:
        Version: 3 (0x2)
        Serial Number: 10064248108666220743 (0x8bab6455087270c7)
    Signature Algorithm: sha256WithRSAEncryption
        Issuer: C=HU, ST=Budapest, O=The MadHouse Project, CN=eowyn-CA
        Validity
            Not Before: Mar 25 08:20:07 2015 GMT
            Not After : Mar 24 08:20:07 2018 GMT
        Subject: C=HU, ST=Budapest, O=The MadHouse Project, CN=eowyn-CA
        Subject Public Key Info:
            Public Key Algorithm: rsaEncryption
                Public-Key: (2048 bit)
                Modulus:
                    00:cf:d9:a8:f3:e3:4e:21:d4:1e:a6:20:10:55:fb:
                    aa:4b:fb:87:b3:f2:e2:38:3a:aa:7a:2c:19:bd:b4:
                    93:7f:1b:5c:25:f1:1a:1b:e4:51:69:ef:54:65:3c:
                    30:89:bb:c3:00:48:cb:d6:61:24:99:28:e2:c4:70:
                    1b:33:e3:96:e4:3b:73:08:ec:c8:1e:25:9a:69:17:
                    e5:ed:7d:df:63:49:7f:ae:69:b0:20:5a:b0:46:a6:
                    0a:52:52:ef:92:ab:16:45:26:b6:90:5e:8e:9a:6f:
                    ef:e2:c2:e6:f7:20:63:c8:87:44:90:1e:cc:9a:29:
                    63:1f:24:48:7b:e1:8e:23:b3:5c:58:9c:98:7c:6d:
                    6b:b1:19:f9:7c:78:6e:8a:0e:0d:f1:4f:8f:13:93:
                    11:4f:4f:76:54:df:40:ba:8e:2c:7d:79:9c:a0:eb:
                    f3:27:16:45:09:0d:bc:e1:1b:c5:a0:f3:25:13:70:
                    14:dc:20:29:48:75:ea:45:cb:92:49:cd:37:6d:8e:
                    88:f5:be:ca:0e:4e:c5:5f:6c:ed:32:bb:05:a7:7e:
                    60:20:cc:75:c4:87:36:c4:01:1d:4a:68:b9:76:5c:
                    65:d0:48:14:77:b1:02:11:c7:40:ce:b9:63:6b:39:
                    fa:07:9e:8c:3f:d4:de:f6:33:13:ef:26:7f:f9:df:
                    e5:2f
                Exponent: 65537 (0x10001)
        X509v3 extensions:
            X509v3 Subject Key Identifier: 
                09:98:4B:08:BE:64:1E:4E:54:71:F4:D0:69:AE:DB:70:94:A5:81:2D
            X509v3 Authority Key Identifier: 
                keyid:09:98:4B:08:BE:64:1E:4E:54:71:F4:D0:69:AE:DB:70:94:A5:81:2D

            X509v3 Basic Constraints: 
                CA:TRUE
    Signature Algorithm: sha256WithRSAEncryption
         20:2b:aa:7c:83:25:71:b1:6c:7a:6f:ba:47:d5:74:14:70:99:
         24:2c:11:5c:b4:d7:6a:f0:99:bc:4b:14:a8:87:e7:d2:52:eb:
         3f:e8:8d:7a:9b:9c:6a:19:b2:76:40:fb:2a:7c:de:54:06:94:
         a4:35:5c:36:7d:94:d6:d9:6c:1d:6f:e3:52:ae:38:ba:40:ed:
         a6:75:48:7f:5c:85:c1:7f:0f:b0:3a:81:75:7c:5a:24:2a:3f:
         96:80:e8:85:7c:40:39:1a:14:ee:b0:26:1c:a1:ec:9a:3e:b5:
         2e:d8:54:2e:7f:4b:32:17:b0:ac:67:36:dc:6f:8a:c1:08:1f:
         fd:aa:2d:ba:c8:91:e6:ce:94:e9:ae:7e:b0:4f:f6:f3:85:6b:
         ee:09:63:24:1e:50:15:13:a4:34:d4:2e:51:11:da:b1:ac:4b:
         44:fa:f1:4d:66:a1:e2:71:ae:26:07:6d:2c:8f:7b:ff:4a:f6:
         38:27:eb:c8:34:00:5c:71:7b:a0:57:c8:f1:d0:1b:ca:bd:a7:
         08:bc:07:2c:e8:eb:c8:c2:63:8d:96:d6:96:c5:75:f5:cc:7f:
         ca:0d:23:4b:4c:42:5f:e1:df:93:5d:64:08:42:61:d4:b0:af:
         61:8b:9a:f8:7c:6c:b1:09:14:bd:a6:5a:ee:58:df:4f:90:8f:
         fe:ee:8d:2e
-----BEGIN CERTIFICATE-----
MIIDdzCCAl+gAwIBAgIJAIurZFUIcnDHMA0GCSqGSIb3DQEBCwUAMFIxCzAJBgNV
BAYTAkhVMREwDwYDVQQIDAhCdWRhcGVzdDEdMBsGA1UECgwUVGhlIE1hZEhvdXNl
IFByb2plY3QxETAPBgNVBAMMCGVvd3luLUNBMB4XDTE1MDMyNTA4MjAwN1oXDTE4
MDMyNDA4MjAwN1owUjELMAkGA1UEBhMCSFUxETAPBgNVBAgMCEJ1ZGFwZXN0MR0w
GwYDVQQKDBRUaGUgTWFkSG91c2UgUHJvamVjdDERMA8GA1UEAwwIZW93eW4tQ0Ew
ggEiMA0GCSqGSIb3DQEBAQUAA4IBDwAwggEKAoIBAQDP2ajz404h1B6mIBBV+6pL
+4ez8uI4Oqp6LBm9tJN/G1wl8Rob5FFp71RlPDCJu8MASMvWYSSZKOLEcBsz45bk
O3MI7MgeJZppF+Xtfd9jSX+uabAgWrBGpgpSUu+SqxZFJraQXo6ab+/iwub3IGPI
h0SQHsyaKWMfJEh74Y4js1xYnJh8bWuxGfl8eG6KDg3xT48TkxFPT3ZU30C6jix9
eZyg6/MnFkUJDbzhG8Wg8yUTcBTcIClIdepFy5JJzTdtjoj1vsoOTsVfbO0yuwWn
fmAgzHXEhzbEAR1KaLl2XGXQSBR3sQIRx0DOuWNrOfoHnow/1N72MxPvJn/53+Uv
AgMBAAGjUDBOMB0GA1UdDgQWBBQJmEsIvmQeTlRx9NBprttwlKWBLTAfBgNVHSME
GDAWgBQJmEsIvmQeTlRx9NBprttwlKWBLTAMBgNVHRMEBTADAQH/MA0GCSqGSIb3
DQEBCwUAA4IBAQAgK6p8gyVxsWx6b7pH1XQUcJkkLBFctNdq8Jm8SxSoh+fSUus/
6I16m5xqGbJ2QPsqfN5UBpSkNVw2fZTW2Wwdb+NSrji6QO2mdUh/XIXBfw+wOoF1
fFokKj+WgOiFfEA5GhTusCYcoeyaPrUu2FQuf0syF7CsZzbcb4rBCB/9qi26yJHm
zpTprn6wT/bzhWvuCWMkHlAVE6Q01C5REdqxrEtE+vFNZqHica4mB20sj3v/SvY4
J+vINABccXugV8jx0BvKvacIvAcs6OvIwmONltaWxXX1zH/KDSNLTEJf4d+TXWQI
QmHUsK9hi5r4fGyxCRS9plruWN9PkI/+7o0u
-----END CERTIFICATE-----
