Certificate:
    Data:
        Version: 3 (0x2)
        Serial Number: 10064248108666220745 (0x8bab6455087270c9)
    Signature Algorithm: sha256WithRSAEncryption
        Issuer: C=HU, ST=Budapest, O=The MadHouse Project, CN=eowyn-CA
        Validity
            Not Before: Mar 25 08:35:01 2015 GMT
            Not After : Mar 24 08:35:01 2016 GMT
        Subject: C=HU, L=Budapest, O=The MadHouse Project, CN=eowyn-client
        Subject Public Key Info:
            Public Key Algorithm: rsaEncryption
                Public-Key: (4096 bit)
                Modulus:
                    00:c4:eb:50:bf:74:6f:a6:08:90:6d:2d:a3:a4:49:
                    cc:10:ff:d2:de:bd:3d:75:16:d2:df:b3:77:a8:75:
                    0d:5b:a3:69:34:60:39:de:3d:96:ca:88:52:f6:a1:
                    18:d1:61:07:1c:6e:28:e5:77:e3:88:e5:00:8e:5e:
                    d7:80:5c:59:b2:68:bb:b2:10:df:83:ac:a4:b5:2d:
                    19:2c:fb:85:8a:bf:09:34:02:f4:f7:32:19:b8:cb:
                    16:2f:34:48:2a:a2:cc:96:6a:f0:62:e2:46:25:d5:
                    59:78:11:29:b3:23:ed:0d:b0:51:ab:29:f3:40:27:
                    32:86:33:dc:5f:b3:6a:45:e2:9c:11:67:19:a6:28:
                    a6:11:85:0d:50:3a:94:e3:95:b9:00:03:8b:36:8b:
                    50:6f:e2:c8:bb:42:1d:79:74:de:19:c2:5a:88:a3:
                    3f:26:fa:b8:91:d4:8d:07:c1:00:d2:2d:90:1a:fa:
                    fc:c1:2c:19:83:e1:15:f4:cc:6a:0b:9d:17:11:48:
                    84:42:57:c9:9b:c8:9a:66:a5:2e:c6:df:37:17:8d:
                    32:5d:3e:84:88:18:4a:c2:cd:9a:2d:67:c0:13:4f:
                    69:9a:42:17:de:fd:38:81:33:49:e4:cb:ee:91:7f:
                    27:ea:a1:f6:1c:70:8a:aa:96:93:a2:fd:7f:0e:72:
                    ec:61:72:f7:65:a3:3e:d4:00:40:ba:c8:1a:35:40:
                    f5:59:3f:02:e9:76:3b:86:23:f2:4a:79:d9:94:f0:
                    59:78:3c:c1:e3:32:ea:70:37:75:4b:2b:3b:bb:aa:
                    5d:12:1c:ea:a9:24:8a:0d:9c:33:0c:9e:0b:af:f1:
                    c5:a3:ae:3e:6a:b6:52:a4:79:f2:f3:05:08:19:38:
                    ac:5b:57:46:fe:be:1e:6e:38:62:dc:4b:a1:91:2d:
                    1f:63:1e:bc:6d:20:d1:63:d8:59:e3:f4:de:4e:c1:
                    4f:28:17:b0:36:28:13:f0:49:fb:08:ba:1f:21:81:
                    71:e2:5e:ef:d3:61:db:b6:86:39:16:b2:b1:f6:fa:
                    3c:c8:42:87:a8:73:47:4f:49:86:0c:ab:bb:d6:33:
                    27:3a:13:2c:c8:f6:6c:45:57:a8:0c:31:c7:71:d1:
                    3c:67:96:c2:96:41:0c:d4:9c:eb:fa:b1:30:43:a1:
                    47:cc:ea:6a:86:96:7f:00:c6:79:96:c3:15:49:c5:
                    15:e4:07:b1:c6:d6:94:3e:22:b1:c5:f0:01:fd:a8:
                    49:e7:59:1a:80:1e:70:da:ad:99:cc:42:01:c7:bd:
                    33:d8:05:91:68:72:6c:6d:be:0f:fe:27:26:38:21:
                    b1:c6:88:ce:b0:41:43:6c:7d:50:d0:96:f3:fa:e1:
                    69:65:af
                Exponent: 65537 (0x10001)
        X509v3 extensions:
            X509v3 Basic Constraints: 
                CA:FALSE
            Netscape Comment: 
                OpenSSL Generated Certificate
            X509v3 Subject Key Identifier: 
                0F:5F:8D:00:61:31:77:6F:6B:18:6F:90:7B:87:7F:E8:59:94:16:07
            X509v3 Authority Key Identifier: 
                keyid:09:98:4B:08:BE:64:1E:4E:54:71:F4:D0:69:AE:DB:70:94:A5:81:2D

    Signature Algorithm: sha256WithRSAEncryption
         2f:d0:61:ae:9f:5f:d7:bd:85:e4:9e:1f:67:46:0e:82:3c:95:
         d0:95:83:a0:2d:66:c7:76:61:36:9e:ad:f3:a8:03:65:f6:d1:
         09:ef:e7:9f:0d:6c:bd:ae:c5:4d:de:f7:27:16:f2:0f:aa:9d:
         ca:25:7d:61:38:b0:73:f8:4f:27:3d:ce:0f:63:74:91:8b:e7:
         6e:3f:80:d5:b5:be:2e:fb:43:cc:2e:d6:35:ee:79:78:a5:6a:
         a7:28:31:1b:59:4a:80:79:0e:44:88:73:71:7c:5f:db:c9:ee:
         9e:89:8f:90:fa:56:0a:16:bd:dd:1f:cb:d0:a7:be:2b:a2:6c:
         ef:bd:19:a6:c0:c5:45:e6:b8:1b:90:9c:77:71:fe:02:1d:8c:
         80:02:8a:f0:4e:13:53:88:d4:07:77:36:d6:b4:f8:45:72:47:
         93:1d:0a:b1:e1:ee:2e:08:c6:33:d8:f5:bb:ee:97:a7:9d:cb:
         b7:54:a4:07:36:3a:ea:a8:31:4e:7b:99:82:cc:08:e9:8e:9b:
         4b:1d:87:a4:d2:34:d6:24:3d:55:6d:6d:d8:a1:61:5e:bc:ce:
         ce:d0:89:ab:1e:ae:de:62:13:ca:75:82:50:f6:e2:59:f5:07:
         d1:01:7f:ce:1c:d6:7e:ce:e1:70:e8:ce:cb:75:0d:8a:74:36:
         bb:86:c0:e5
-----BEGIN CERTIFICATE-----
MIIEpjCCA46gAwIBAgIJAIurZFUIcnDJMA0GCSqGSIb3DQEBCwUAMFIxCzAJBgNV
BAYTAkhVMREwDwYDVQQIDAhCdWRhcGVzdDEdMBsGA1UECgwUVGhlIE1hZEhvdXNl
IFByb2plY3QxETAPBgNVBAMMCGVvd3luLUNBMB4XDTE1MDMyNTA4MzUwMVoXDTE2
MDMyNDA4MzUwMVowVjELMAkGA1UEBhMCSFUxETAPBgNVBAcMCEJ1ZGFwZXN0MR0w
GwYDVQQKDBRUaGUgTWFkSG91c2UgUHJvamVjdDEVMBMGA1UEAwwMZW93eW4tY2xp
ZW50MIICIjANBgkqhkiG9w0BAQEFAAOCAg8AMIICCgKCAgEAxOtQv3RvpgiQbS2j
pEnMEP/S3r09dRbS37N3qHUNW6NpNGA53j2WyohS9qEY0WEHHG4o5XfjiOUAjl7X
gFxZsmi7shDfg6yktS0ZLPuFir8JNAL09zIZuMsWLzRIKqLMlmrwYuJGJdVZeBEp
syPtDbBRqynzQCcyhjPcX7NqReKcEWcZpiimEYUNUDqU45W5AAOLNotQb+LIu0Id
eXTeGcJaiKM/Jvq4kdSNB8EA0i2QGvr8wSwZg+EV9MxqC50XEUiEQlfJm8iaZqUu
xt83F40yXT6EiBhKws2aLWfAE09pmkIX3v04gTNJ5MvukX8n6qH2HHCKqpaTov1/
DnLsYXL3ZaM+1ABAusgaNUD1WT8C6XY7hiPySnnZlPBZeDzB4zLqcDd1Sys7u6pd
EhzqqSSKDZwzDJ4Lr/HFo64+arZSpHny8wUIGTisW1dG/r4ebjhi3EuhkS0fYx68
bSDRY9hZ4/TeTsFPKBewNigT8En7CLofIYFx4l7v02HbtoY5FrKx9vo8yEKHqHNH
T0mGDKu71jMnOhMsyPZsRVeoDDHHcdE8Z5bClkEM1Jzr+rEwQ6FHzOpqhpZ/AMZ5
lsMVScUV5AexxtaUPiKxxfAB/ahJ51kagB5w2q2ZzEIBx70z2AWRaHJsbb4P/icm
OCGxxojOsEFDbH1Q0Jbz+uFpZa8CAwEAAaN7MHkwCQYDVR0TBAIwADAsBglghkgB
hvhCAQ0EHxYdT3BlblNTTCBHZW5lcmF0ZWQgQ2VydGlmaWNhdGUwHQYDVR0OBBYE
FA9fjQBhMXdvaxhvkHuHf+hZlBYHMB8GA1UdIwQYMBaAFAmYSwi+ZB5OVHH00Gmu
23CUpYEtMA0GCSqGSIb3DQEBCwUAA4IBAQAv0GGun1/XvYXknh9nRg6CPJXQlYOg
LWbHdmE2nq3zqANl9tEJ7+efDWy9rsVN3vcnFvIPqp3KJX1hOLBz+E8nPc4PY3SR
i+duP4DVtb4u+0PMLtY17nl4pWqnKDEbWUqAeQ5EiHNxfF/bye6eiY+Q+lYKFr3d
H8vQp74romzvvRmmwMVF5rgbkJx3cf4CHYyAAorwThNTiNQHdzbWtPhFckeTHQqx
4e4uCMYz2PW77penncu3VKQHNjrqqDFOe5mCzAjpjptLHYek0jTWJD1VbW3YoWFe
vM7O0ImrHq7eYhPKdYJQ9uJZ9QfRAX/OHNZ+zuFw6M7LdQ2KdDa7hsDl
-----END CERTIFICATE-----
