Certificate:
    Data:
        Version: 3 (0x2)
        Serial Number: 10064248108666220744 (0x8bab6455087270c8)
    Signature Algorithm: sha256WithRSAEncryption
        Issuer: C=HU, ST=Budapest, O=The MadHouse Project, CN=eowyn-CA
        Validity
            Not Before: Mar 25 08:20:48 2015 GMT
            Not After : Mar 24 08:20:48 2016 GMT
        Subject: C=HU, ST=Budapest, L=Budapest, O=The MadHouse Project, CN=eowyn
        Subject Public Key Info:
            Public Key Algorithm: rsaEncryption
                Public-Key: (4096 bit)
                Modulus:
                    00:e8:ee:9e:eb:f7:db:f8:0b:59:c3:76:56:c8:72:
                    60:e5:5a:93:ac:09:af:bf:c6:6f:aa:35:17:e9:42:
                    e7:1c:ee:22:56:d6:d4:d5:39:9e:7a:db:01:88:7d:
                    94:37:34:7b:9a:4a:5f:9f:47:55:f7:4a:ab:4e:d8:
                    72:64:59:8b:b9:54:82:ff:77:ff:be:fe:91:82:d4:
                    b3:a5:a8:c5:4f:a7:73:8d:1f:34:4d:5a:ef:fe:01:
                    9b:dc:3a:e6:8c:48:10:db:53:c7:45:b3:a2:b3:54:
                    65:8d:be:08:66:1f:cf:1e:56:8b:07:97:2b:a0:2d:
                    0d:42:cb:0e:b7:18:56:7e:50:df:af:4c:a1:b7:ac:
                    3f:79:11:48:ce:ff:5c:18:3d:a4:a0:53:3b:77:f4:
                    28:37:74:98:fc:9b:ae:f4:12:10:41:5e:38:20:c0:
                    c8:bc:0a:d3:a8:c2:b3:e4:b6:09:9d:28:0e:bf:a6:
                    42:45:95:df:89:63:d8:b3:a4:62:11:31:4b:7f:bb:
                    f5:d4:05:ee:38:cd:5c:1c:ce:be:61:73:53:b6:af:
                    c4:e6:c0:57:93:17:da:6e:e5:ec:7d:87:27:ca:eb:
                    ea:ab:a8:37:2a:08:2f:f6:47:b8:f3:02:dd:de:b5:
                    57:5e:84:f3:2a:51:04:79:e6:9c:9e:76:2d:cf:10:
                    d9:e4:28:38:db:f8:d0:bd:17:d4:e7:6b:ef:93:8a:
                    8a:dc:b3:d0:80:26:76:82:19:5f:7d:b9:69:ff:d5:
                    c3:4e:af:33:99:6c:17:53:3f:48:62:47:d5:65:03:
                    5f:c1:69:30:ce:63:c5:ea:95:f3:dd:0b:7b:40:21:
                    37:53:07:c5:19:39:22:ee:5f:d9:59:19:46:89:f9:
                    b5:9f:ab:ce:5d:78:5b:35:bf:6f:95:c7:76:36:0b:
                    c8:c2:2f:98:83:b0:2b:29:1a:da:1c:d3:f3:ef:39:
                    73:11:0e:91:a5:e9:91:77:7c:5e:29:9b:90:73:b6:
                    c0:c6:70:5e:13:67:66:ec:50:ad:c1:9f:b5:c2:df:
                    54:06:4a:3c:ec:31:b1:b9:77:29:33:ff:f1:55:3c:
                    84:d2:32:8f:0b:c2:5d:2f:f4:cd:fb:02:58:e1:0a:
                    8d:0c:aa:de:22:fe:08:15:7d:60:5d:45:17:aa:f3:
                    df:1c:cd:a5:ca:3a:cc:79:35:3a:b4:67:15:ae:82:
                    cf:01:f6:ac:dc:8d:18:45:6a:38:03:c9:99:45:56:
                    8c:22:e2:b4:b7:08:b5:40:2d:81:ca:de:f4:06:25:
                    f0:a3:35:d8:41:fb:45:23:e3:23:e8:1b:be:17:d2:
                    ec:4e:56:86:91:21:c2:81:77:09:95:d8:6b:f0:b2:
                    d5:be:c9
                Exponent: 65537 (0x10001)
        X509v3 extensions:
            X509v3 Basic Constraints: 
                CA:FALSE
            Netscape Comment: 
                OpenSSL Generated Certificate
            X509v3 Subject Key Identifier: 
                5D:DB:42:01:2F:AB:12:F1:73:35:4B:E5:D8:16:AB:53:F7:8C:79:84
            X509v3 Authority Key Identifier: 
                keyid:09:98:4B:08:BE:64:1E:4E:54:71:F4:D0:69:AE:DB:70:94:A5:81:2D

    Signature Algorithm: sha256WithRSAEncryption
         61:15:71:7a:51:fb:54:9e:f4:79:57:fb:c4:43:c4:49:7f:77:
         ce:96:22:e2:a7:21:79:1c:52:0e:82:f5:57:39:27:7e:b0:aa:
         ed:79:78:ce:27:13:49:44:26:54:4a:a8:da:81:e3:96:85:13:
         b5:89:99:4e:b2:89:ba:4a:a1:27:2d:4c:ad:d9:0a:af:c6:ce:
         2b:ec:83:cb:5d:4e:75:e3:ee:66:fc:8a:7d:c7:54:5a:ab:82:
         2d:d8:55:81:8c:1d:6e:e0:61:7a:58:1e:50:45:03:5f:90:95:
         42:a7:99:53:7d:ab:9a:10:8d:fd:28:f7:28:21:a3:38:e8:41:
         bf:f3:48:fc:bd:b5:33:15:9f:97:73:9c:64:b2:47:4e:01:53:
         a1:24:15:34:11:20:b1:e9:6f:c6:95:b8:ef:0d:05:0e:58:66:
         38:43:95:14:f3:43:0c:d8:78:04:a1:7e:73:8e:b2:52:af:45:
         0d:7c:3d:5e:2a:70:81:77:94:d3:bc:04:46:c0:fd:37:72:88:
         2f:9a:f3:51:98:59:76:bb:1e:e2:6b:c5:d6:4c:7a:67:8a:05:
         d5:99:e1:da:76:43:02:f4:c0:24:18:2b:a1:54:ea:61:37:0b:
         03:da:d5:8e:f7:99:36:cd:8e:7a:7b:2d:28:08:de:12:54:f1:
         3b:35:f0:e2
-----BEGIN CERTIFICATE-----
MIIEsjCCA5qgAwIBAgIJAIurZFUIcnDIMA0GCSqGSIb3DQEBCwUAMFIxCzAJBgNV
BAYTAkhVMREwDwYDVQQIDAhCdWRhcGVzdDEdMBsGA1UECgwUVGhlIE1hZEhvdXNl
IFByb2plY3QxETAPBgNVBAMMCGVvd3luLUNBMB4XDTE1MDMyNTA4MjA0OFoXDTE2
MDMyNDA4MjA0OFowYjELMAkGA1UEBhMCSFUxETAPBgNVBAgMCEJ1ZGFwZXN0MREw
DwYDVQQHDAhCdWRhcGVzdDEdMBsGA1UECgwUVGhlIE1hZEhvdXNlIFByb2plY3Qx
DjAMBgNVBAMMBWVvd3luMIICIjANBgkqhkiG9w0BAQEFAAOCAg8AMIICCgKCAgEA
6O6e6/fb+AtZw3ZWyHJg5VqTrAmvv8ZvqjUX6ULnHO4iVtbU1TmeetsBiH2UNzR7
mkpfn0dV90qrTthyZFmLuVSC/3f/vv6RgtSzpajFT6dzjR80TVrv/gGb3DrmjEgQ
21PHRbOis1Rljb4IZh/PHlaLB5croC0NQssOtxhWflDfr0yht6w/eRFIzv9cGD2k
oFM7d/QoN3SY/Juu9BIQQV44IMDIvArTqMKz5LYJnSgOv6ZCRZXfiWPYs6RiETFL
f7v11AXuOM1cHM6+YXNTtq/E5sBXkxfabuXsfYcnyuvqq6g3Kggv9ke48wLd3rVX
XoTzKlEEeeacnnYtzxDZ5Cg42/jQvRfU52vvk4qK3LPQgCZ2ghlffblp/9XDTq8z
mWwXUz9IYkfVZQNfwWkwzmPF6pXz3Qt7QCE3UwfFGTki7l/ZWRlGifm1n6vOXXhb
Nb9vlcd2NgvIwi+Yg7ArKRraHNPz7zlzEQ6RpemRd3xeKZuQc7bAxnBeE2dm7FCt
wZ+1wt9UBko87DGxuXcpM//xVTyE0jKPC8JdL/TN+wJY4QqNDKreIv4IFX1gXUUX
qvPfHM2lyjrMeTU6tGcVroLPAfas3I0YRWo4A8mZRVaMIuK0twi1QC2Byt70BiXw
ozXYQftFI+Mj6Bu+F9LsTlaGkSHCgXcJldhr8LLVvskCAwEAAaN7MHkwCQYDVR0T
BAIwADAsBglghkgBhvhCAQ0EHxYdT3BlblNTTCBHZW5lcmF0ZWQgQ2VydGlmaWNh
dGUwHQYDVR0OBBYEFF3bQgEvqxLxczVL5dgWq1P3jHmEMB8GA1UdIwQYMBaAFAmY
Swi+ZB5OVHH00Gmu23CUpYEtMA0GCSqGSIb3DQEBCwUAA4IBAQBhFXF6UftUnvR5
V/vEQ8RJf3fOliLipyF5HFIOgvVXOSd+sKrteXjOJxNJRCZUSqjageOWhRO1iZlO
som6SqEnLUyt2Qqvxs4r7IPLXU514+5m/Ip9x1Raq4It2FWBjB1u4GF6WB5QRQNf
kJVCp5lTfauaEI39KPcoIaM46EG/80j8vbUzFZ+Xc5xkskdOAVOhJBU0ESCx6W/G
lbjvDQUOWGY4Q5UU80MM2HgEoX5zjrJSr0UNfD1eKnCBd5TTvARGwP03cogvmvNR
mFl2ux7ia8XWTHpnigXVmeHadkMC9MAkGCuhVOphNwsD2tWO95k2zY56ey0oCN4S
VPE7NfDi
-----END CERTIFICATE-----
